target datalayout = "e-m:e-p270:32:32-p271:32:32-p272:64:64-i64:64-i128:128-f80:128-n8:16:32:64-S128"
target triple = "x86_64-pc-linux-gnu"

%"class.cv::Size_" = type { i32, i32 }

; Function Attrs: inlinehint mustprogress nounwind uwtable
define internal noundef float @_ZN2cvL13saturate_castIfEET_f(float noundef %0) #4 {
  %2 = alloca float, align 4
  store float %0, ptr %2, align 4, !tbaa !71
  %3 = load float, ptr %2, align 4, !tbaa !71
  ret float %3
}

; Function Attrs: inlinehint mustprogress nounwind uwtable
define linkonce_odr hidden void @_ZN2cv12cpu_baseline7cvt_32fIifEEvPKT_mPT0_mNS_5Size_IiEEff(ptr noundef %0, i64 noundef %1, ptr noundef %2, i64 noundef %3, i64 %4, float noundef %5, float noundef %6) #4 comdat {
  %8 = alloca %"class.cv::Size_", align 4
  %9 = alloca ptr, align 8
  %10 = alloca i64, align 8
  %11 = alloca ptr, align 8
  %12 = alloca i64, align 8
  %13 = alloca float, align 4
  %14 = alloca float, align 4
  %15 = alloca i32, align 4
  %16 = alloca i32, align 4
  store i64 %4, ptr %8, align 4
  store ptr %0, ptr %9, align 8, !tbaa !20
  store i64 %1, ptr %10, align 8, !tbaa !11
  store ptr %2, ptr %11, align 8, !tbaa !22
  store i64 %3, ptr %12, align 8, !tbaa !11
  store float %5, ptr %13, align 4, !tbaa !71
  store float %6, ptr %14, align 4, !tbaa !71
  %17 = load i64, ptr %10, align 8, !tbaa !11
  %18 = udiv i64 %17, 4
  store i64 %18, ptr %10, align 8, !tbaa !11
  %19 = load i64, ptr %12, align 8, !tbaa !11
  %20 = udiv i64 %19, 4
  store i64 %20, ptr %12, align 8, !tbaa !11
  call void @llvm.lifetime.start.p0(i64 4, ptr %15) #17
  store i32 0, ptr %15, align 4, !tbaa !3
  br label %21

21:                                               ; preds = %52, %7
  %22 = load i32, ptr %15, align 4, !tbaa !3
  %23 = getelementptr inbounds nuw %"class.cv::Size_", ptr %8, i32 0, i32 1
  %24 = load i32, ptr %23, align 4, !tbaa !70
  %25 = icmp slt i32 %22, %24
  br i1 %25, label %27, label %26

26:                                               ; preds = %21
  call void @llvm.lifetime.end.p0(i64 4, ptr %15) #17
  br label %61

27:                                               ; preds = %21
  call void @llvm.lifetime.start.p0(i64 4, ptr %16) #17
  store i32 0, ptr %16, align 4, !tbaa !3
  br label %28

28:                                               ; preds = %48, %27
  %29 = load i32, ptr %16, align 4, !tbaa !3
  %30 = getelementptr inbounds nuw %"class.cv::Size_", ptr %8, i32 0, i32 0
  %31 = load i32, ptr %30, align 4, !tbaa !69
  %32 = icmp slt i32 %29, %31
  br i1 %32, label %33, label %51

33:                                               ; preds = %28
  %34 = load ptr, ptr %9, align 8, !tbaa !20
  %35 = load i32, ptr %16, align 4, !tbaa !3
  %36 = sext i32 %35 to i64
  %37 = getelementptr inbounds i32, ptr %34, i64 %36
  %38 = load i32, ptr %37, align 4, !tbaa !3
  %39 = sitofp i32 %38 to float
  %40 = load float, ptr %13, align 4, !tbaa !71
  %41 = load float, ptr %14, align 4, !tbaa !71
  %42 = call float @llvm.fmuladd.f32(float %39, float %40, float %41)
  %43 = call noundef float @_ZN2cvL13saturate_castIfEET_f(float noundef %42)
  %44 = load ptr, ptr %11, align 8, !tbaa !22
  %45 = load i32, ptr %16, align 4, !tbaa !3
  %46 = sext i32 %45 to i64
  %47 = getelementptr inbounds float, ptr %44, i64 %46
  store float %43, ptr %47, align 4, !tbaa !71
  br label %48

48:                                               ; preds = %33
  %49 = load i32, ptr %16, align 4, !tbaa !3
  %50 = add nsw i32 %49, 1
  store i32 %50, ptr %16, align 4, !tbaa !3
  br label %28, !llvm.loop !180

51:                                               ; preds = %28
  call void @llvm.lifetime.end.p0(i64 4, ptr %16) #17
  br label %52

52:                                               ; preds = %51
  %53 = load i32, ptr %15, align 4, !tbaa !3
  %54 = add nsw i32 %53, 1
  store i32 %54, ptr %15, align 4, !tbaa !3
  %55 = load i64, ptr %10, align 8, !tbaa !11
  %56 = load ptr, ptr %9, align 8, !tbaa !20
  %57 = getelementptr inbounds nuw i32, ptr %56, i64 %55
  store ptr %57, ptr %9, align 8, !tbaa !20
  %58 = load i64, ptr %12, align 8, !tbaa !11
  %59 = load ptr, ptr %11, align 8, !tbaa !22
  %60 = getelementptr inbounds nuw float, ptr %59, i64 %58
  store ptr %60, ptr %11, align 8, !tbaa !22
  br label %21, !llvm.loop !181

61:                                               ; preds = %26
  ret void
}

; Function Attrs: mustprogress uwtable
define internal void @_ZN2cv12cpu_baselineL14cvtScale32s32fEPKhmS2_mPhmNS_5Size_IiEEPv(ptr noundef %0, i64 noundef %1, ptr noundef %2, i64 noundef %3, ptr noundef %4, i64 noundef %5, i64 %6, ptr noundef %7) #1 {
  %9 = alloca %"class.cv::Size_", align 4
  %10 = alloca ptr, align 8
  %11 = alloca i64, align 8
  %12 = alloca ptr, align 8
  %13 = alloca i64, align 8
  %14 = alloca ptr, align 8
  %15 = alloca i64, align 8
  %16 = alloca ptr, align 8
  %17 = alloca ptr, align 8
  %18 = alloca ptr, align 8
  %19 = alloca ptr, align 8
  %20 = alloca %"class.cv::Size_", align 4
  store i64 %6, ptr %9, align 4
  store ptr %0, ptr %10, align 8, !tbaa !9
  store i64 %1, ptr %11, align 8, !tbaa !11
  store ptr %2, ptr %12, align 8, !tbaa !9
  store i64 %3, ptr %13, align 8, !tbaa !11
  store ptr %4, ptr %14, align 8, !tbaa !9
  store i64 %5, ptr %15, align 8, !tbaa !11
  store ptr %7, ptr %16, align 8, !tbaa !7
  call void @llvm.lifetime.start.p0(i64 8, ptr %17) #17
  %21 = load ptr, ptr %10, align 8, !tbaa !9
  store ptr %21, ptr %17, align 8, !tbaa !20
  call void @llvm.lifetime.start.p0(i64 8, ptr %18) #17
  %22 = load ptr, ptr %14, align 8, !tbaa !9
  store ptr %22, ptr %18, align 8, !tbaa !22
  call void @llvm.lifetime.start.p0(i64 8, ptr %19) #17
  %23 = load ptr, ptr %16, align 8, !tbaa !7
  store ptr %23, ptr %19, align 8, !tbaa !13
  %24 = load ptr, ptr %17, align 8, !tbaa !20
  %25 = load i64, ptr %11, align 8, !tbaa !11
  %26 = load ptr, ptr %18, align 8, !tbaa !22
  %27 = load i64, ptr %15, align 8, !tbaa !11
  call void @llvm.memcpy.p0.p0.i64(ptr align 4 %20, ptr align 4 %9, i64 8, i1 false), !tbaa.struct !15
  %28 = load ptr, ptr %19, align 8, !tbaa !13
  %29 = getelementptr inbounds double, ptr %28, i64 0
  %30 = load double, ptr %29, align 8, !tbaa !16
  %31 = fptrunc double %30 to float
  %32 = load ptr, ptr %19, align 8, !tbaa !13
  %33 = getelementptr inbounds double, ptr %32, i64 1
  %34 = load double, ptr %33, align 8, !tbaa !16
  %35 = fptrunc double %34 to float
  %36 = load i64, ptr %20, align 4
  call void @_ZN2cv12cpu_baseline7cvt_32fIifEEvPKT_mPT0_mNS_5Size_IiEEff(ptr noundef %24, i64 noundef %25, ptr noundef %26, i64 noundef %27, i64 %36, float noundef %31, float noundef %35)
  call void @llvm.lifetime.end.p0(i64 8, ptr %19) #17
  call void @llvm.lifetime.end.p0(i64 8, ptr %18) #17
  call void @llvm.lifetime.end.p0(i64 8, ptr %17) #17
  ret void
}